target datalayout = "e-m:e-p270:32:32-p271:32:32-p272:64:64-i64:64-i128:128-f80:128-n8:16:32:64-S128"
target triple = "x86_64-pc-linux-gnu"

%struct.CVodeMemRec = type { double, ptr, ptr, i32, i32, i32, double, double, ptr, i32, ptr, ptr, i32, ptr, i32, i32, double, double, ptr, i32, i32, i32, ptr, ptr, ptr, i32, i32, ptr, ptr, ptr, i32, double, i32, i32, double, ptr, ptr, i32, ptr, ptr, i32, i32, i32, double, ptr, ptr, [13 x ptr], ptr, ptr, ptr, ptr, ptr, [13 x ptr], ptr, ptr, ptr, ptr, [13 x ptr], ptr, ptr, ptr, ptr, ptr, i32, [13 x ptr], ptr, ptr, ptr, ptr, ptr, i32, double, i32, i32, i32, i32, i32, double, double, double, double, double, double, double, double, [14 x double], [6 x double], [13 x double], double, double, double, double, double, double, double, double, double, double, double, i32, ptr, i32, i64, i32, i32, i32, i32, i32, double, double, double, i64, i64, i64, i64, i64, i64, i64, i64, i64, ptr, i64, i64, ptr, i64, i64, i64, i64, i64, i64, i32, i64, i64, i64, i64, i64, i64, double, double, double, ptr, ptr, ptr, ptr, ptr, i32, i32, i64, double, double, double, i32, double, i32, i32, i32, i32, i32, i32, i32, i32, i32, i32, i32, i32, i32, i32, i32, i32, ptr, ptr, ptr, i32, [6 x [4 x double]], i32, i64, ptr, i32, ptr, ptr, double, double, double, ptr, ptr, ptr, double, double, i32, i32, i64, ptr, i32, i32, ptr, i32 }

@.str = private unnamed_addr constant [7 x i8] c"CVODES\00", align 1
@.str.2 = private unnamed_addr constant [26 x i8] c"cvode_mem = NULL illegal.\00", align 1
@.str.30 = private unnamed_addr constant [21 x i8] c"CVodeSetSensDQMethod\00", align 1
@.str.31 = private unnamed_addr constant [72 x i8] c"Illegal value for DQtype. Legal values are: CV_CENTERED and CV_FORWARD.\00", align 1
@.str.32 = private unnamed_addr constant [22 x i8] c"DQrhomax < 0 illegal.\00", align 1

; Function Attrs: nounwind uwtable
define i32 @CVodeSetSensDQMethod(ptr noundef %0, i32 noundef %1, double noundef %2) #0 {
  %4 = alloca i32, align 4
  %5 = alloca ptr, align 8
  %6 = alloca i32, align 4
  %7 = alloca double, align 8
  %8 = alloca ptr, align 8
  %9 = alloca i32, align 4
  store ptr %0, ptr %5, align 8, !tbaa !3
  store i32 %1, ptr %6, align 4, !tbaa !24
  store double %2, ptr %7, align 8, !tbaa !36
  call void @llvm.lifetime.start.p0(i64 8, ptr %8) #5
  %10 = load ptr, ptr %5, align 8, !tbaa !3
  %11 = icmp eq ptr %10, null
  br i1 %11, label %12, label %13

12:                                               ; preds = %3
  call void (ptr, i32, ptr, ptr, ptr, ...) @cvProcessError(ptr noundef null, i32 noundef -21, ptr noundef @.str, ptr noundef @.str.30, ptr noundef @.str.2)
  store i32 -21, ptr %4, align 4
  store i32 1, ptr %9, align 4
  br label %34

13:                                               ; preds = %3
  %14 = load ptr, ptr %5, align 8, !tbaa !3
  store ptr %14, ptr %8, align 8, !tbaa !7
  %15 = load i32, ptr %6, align 4, !tbaa !24
  %16 = icmp ne i32 %15, 1
  br i1 %16, label %17, label %22

17:                                               ; preds = %13
  %18 = load i32, ptr %6, align 4, !tbaa !24
  %19 = icmp ne i32 %18, 2
  br i1 %19, label %20, label %22

20:                                               ; preds = %17
  %21 = load ptr, ptr %8, align 8, !tbaa !7
  call void (ptr, i32, ptr, ptr, ptr, ...) @cvProcessError(ptr noundef %21, i32 noundef -22, ptr noundef @.str, ptr noundef @.str.30, ptr noundef @.str.31)
  store i32 -22, ptr %4, align 4
  store i32 1, ptr %9, align 4
  br label %34

22:                                               ; preds = %17, %13
  %23 = load double, ptr %7, align 8, !tbaa !36
  %24 = fcmp olt double %23, 0.000000e+00
  br i1 %24, label %25, label %27

25:                                               ; preds = %22
  %26 = load ptr, ptr %8, align 8, !tbaa !7
  call void (ptr, i32, ptr, ptr, ptr, ...) @cvProcessError(ptr noundef %26, i32 noundef -22, ptr noundef @.str, ptr noundef @.str.30, ptr noundef @.str.32)
  store i32 -22, ptr %4, align 4
  store i32 1, ptr %9, align 4
  br label %34

27:                                               ; preds = %22
  %28 = load i32, ptr %6, align 4, !tbaa !24
  %29 = load ptr, ptr %8, align 8, !tbaa !7
  %30 = getelementptr inbounds nuw %struct.CVodeMemRec, ptr %29, i32 0, i32 30
  store i32 %28, ptr %30, align 8, !tbaa !56
  %31 = load double, ptr %7, align 8, !tbaa !36
  %32 = load ptr, ptr %8, align 8, !tbaa !7
  %33 = getelementptr inbounds nuw %struct.CVodeMemRec, ptr %32, i32 0, i32 31
  store double %31, ptr %33, align 8, !tbaa !57
  store i32 0, ptr %4, align 4
  store i32 1, ptr %9, align 4
  br label %34

34:                                               ; preds = %27, %25, %20, %12
  call void @llvm.lifetime.end.p0(i64 8, ptr %8) #5
  %35 = load i32, ptr %4, align 4
  ret i32 %35
}